; ModuleID = '62/2849.c'
source_filename = "62/2849.c"
target datalayout = "e-m:e-p270:32:32-p271:32:32-p272:64:64-i64:64-f80:128-n8:16:32:64-S128"
target triple = "x86_64-pc-linux-gnu"

@.str = private unnamed_addr constant [3 x i8] c"%c\00", align 1

; Function Attrs: noinline nounwind uwtable
define dso_local i32 @main() #0 {
  %1 = alloca i32, align 4
  %2 = alloca i32, align 4
  %3 = alloca i32, align 4
  %4 = alloca i32, align 4
  store i32 0, i32* %1, align 4
  store i32 0, i32* %2, align 4
  store i32 0, i32* %3, align 4
  %5 = call i32 @getchar()
  store i32 %5, i32* %4, align 4
  br label %6

6:                                                ; preds = %34, %0
  %7 = load i32, i32* %4, align 4
  %8 = icmp ne i32 %7, -1
  br i1 %8, label %9, label %38

9:                                                ; preds = %6
  %10 = load i32, i32* %3, align 4
  %11 = icmp eq i32 %10, 0
  br i1 %11, label %12, label %19

12:                                               ; preds = %9
  %13 = load i32, i32* %4, align 4
  %14 = call i32 @isgraph(i32 %13) #3
  %15 = icmp ne i32 %14, 0
  br i1 %15, label %16, label %19

16:                                               ; preds = %12
  %17 = load i32, i32* %4, align 4
  %18 = call i32 (i8*, ...) @printf(i8* getelementptr inbounds ([3 x i8], [3 x i8]* @.str, i64 0, i64 0), i32 %17)
  br label %34

19:                                               ; preds = %12, %9
  %20 = load i32, i32* %3, align 4
  %21 = icmp eq i32 %20, 0
  br i1 %21, label %22, label %25

22:                                               ; preds = %19
  %23 = load i32, i32* %4, align 4
  %24 = call i32 (i8*, ...) @printf(i8* getelementptr inbounds ([3 x i8], [3 x i8]* @.str, i64 0, i64 0), i32 %23)
  store i32 1, i32* %3, align 4
  br label %33

25:                                               ; preds = %19
  %26 = load i32, i32* %4, align 4
  %27 = call i32 @isgraph(i32 %26) #3
  %28 = icmp ne i32 %27, 0
  br i1 %28, label %29, label %32

29:                                               ; preds = %25
  %30 = load i32, i32* %4, align 4
  %31 = call i32 (i8*, ...) @printf(i8* getelementptr inbounds ([3 x i8], [3 x i8]* @.str, i64 0, i64 0), i32 %30)
  store i32 0, i32* %3, align 4
  br label %32

32:                                               ; preds = %29, %25
  br label %33

33:                                               ; preds = %32, %22
  br label %34

34:                                               ; preds = %33, %16
  %35 = call i32 @getchar()
  store i32 %35, i32* %4, align 4
  %36 = load i32, i32* %2, align 4
  %37 = add nsw i32 %36, 1
  store i32 %37, i32* %2, align 4
  br label %6

38:                                               ; preds = %6
  %39 = load i32, i32* %1, align 4
  ret i32 %39
}

declare dso_local i32 @getchar() #1

; Function Attrs: nounwind readonly
declare dso_local i32 @isgraph(i32) #2

declare dso_local i32 @printf(i8*, ...) #1


!llvm.module.flags = !{!0}
!llvm.ident = !{!1}

!0 = !{i32 1, !"wchar_size", i32 4}
!1 = !{!"clang version 10.0.0-4ubuntu1 "}
